; Function Attrs: mustprogress uwtable
define hidden void @_ZN4lean16initialize_levelEv() local_unnamed_addr #0 personality ptr @__gxx_personality_v0 {
  %1 = tail call noalias noundef nonnull dereferenceable(8) ptr @_Znwm(i64 noundef 8) #22
  %2 = invoke ptr @lean_level_mk_zero(ptr noundef nonnull inttoptr (i64 1 to ptr))
          to label %3 unwind label %18

3:                                                ; preds = %0
  store ptr %2, ptr %1, align 8, !tbaa !3
  store ptr %1, ptr @_ZN4leanL12g_level_zeroE, align 8, !tbaa !39
  tail call void @lean_mark_persistent(ptr noundef %2)
  %4 = tail call noalias noundef nonnull dereferenceable(8) ptr @_Znwm(i64 noundef 8) #22
  %5 = load ptr, ptr @_ZN4leanL12g_level_zeroE, align 8, !tbaa !39
  tail call void @llvm.experimental.noalias.scope.decl(metadata !117)
  %6 = load ptr, ptr %5, align 8, !tbaa !3, !noalias !117
  %7 = ptrtoint ptr %6 to i64
  %8 = and i64 %7, 1
  %.not.i.i.i = icmp eq i64 %8, 0
  br i1 %.not.i.i.i, label %9, label %_ZNK4lean10object_ref10to_obj_argEv.exit.i

9:                                                ; preds = %3
  %.val.i.i.i.i = load i32, ptr %6, align 4, !tbaa !8, !noalias !117
  %10 = icmp sgt i32 %.val.i.i.i.i, 0
  br i1 %10, label %11, label %13, !prof !11

11:                                               ; preds = %9
  %12 = add nuw nsw i32 %.val.i.i.i.i, 1
  store i32 %12, ptr %6, align 4, !tbaa !8, !noalias !117
  br label %_ZNK4lean10object_ref10to_obj_argEv.exit.i

13:                                               ; preds = %9
  %.not.i.i.i.i = icmp eq i32 %.val.i.i.i.i, 0
  br i1 %.not.i.i.i.i, label %_ZNK4lean10object_ref10to_obj_argEv.exit.i, label %14

14:                                               ; preds = %13
  invoke void @lean_inc_ref_cold(ptr noundef nonnull %6)
          to label %.noexc unwind label %20

.noexc:                                           ; preds = %14
  %.pre.i.i = load ptr, ptr %5, align 8, !tbaa !3, !noalias !117
  br label %_ZNK4lean10object_ref10to_obj_argEv.exit.i

_ZNK4lean10object_ref10to_obj_argEv.exit.i:       ; preds = %.noexc, %13, %11, %3
  %15 = phi ptr [ %6, %3 ], [ %6, %11 ], [ %6, %13 ], [ %.pre.i.i, %.noexc ]
  %16 = invoke ptr @lean_level_mk_succ(ptr noundef %15)
          to label %17 unwind label %20

17:                                               ; preds = %_ZNK4lean10object_ref10to_obj_argEv.exit.i
  store ptr %16, ptr %4, align 8, !tbaa !3, !alias.scope !117
  store ptr %4, ptr @_ZN4leanL11g_level_oneE, align 8, !tbaa !39
  tail call void @lean_mark_persistent(ptr noundef %16)
  ret void

18:                                               ; preds = %0
  %19 = landingpad { ptr, i32 }
          cleanup
  br label %22

20:                                               ; preds = %_ZNK4lean10object_ref10to_obj_argEv.exit.i, %14
  %21 = landingpad { ptr, i32 }
          cleanup
  br label %22

22:                                               ; preds = %20, %18
  %.sink = phi ptr [ %4, %20 ], [ %1, %18 ]
  %.pn = phi { ptr, i32 } [ %21, %20 ], [ %19, %18 ]
  tail call void @_ZdlPvm(ptr noundef nonnull %.sink, i64 noundef 8) #23
  resume { ptr, i32 } %.pn
}